target datalayout = "e-m:e-p270:32:32-p271:32:32-p272:64:64-i64:64-i128:128-f80:128-n8:16:32:64-S128"
target triple = "x86_64-pc-linux-gnu"

@idx = internal global i32 0, align 4

; Function Attrs: inlinehint nounwind uwtable
define internal ptr @ossl_check_SSL_COMP_sk_type(ptr noundef %0) #3 {
  %2 = alloca ptr, align 8
  store ptr %0, ptr %2, align 8, !tbaa !13
  %3 = load ptr, ptr %2, align 8, !tbaa !13
  ret ptr %3
}

; Function Attrs: nounwind uwtable
define dso_local i32 @FuzzerInitialize(ptr noundef %0, ptr noundef %1) #0 {
  %3 = alloca ptr, align 8
  %4 = alloca ptr, align 8
  %5 = alloca ptr, align 8
  store ptr %0, ptr %3, align 8, !tbaa !4
  store ptr %1, ptr %4, align 8, !tbaa !9
  call void @llvm.lifetime.start.p0(i64 8, ptr %5) #7
  call void @FuzzerSetRand()
  %6 = call i32 @OPENSSL_init_crypto(i64 noundef 258, ptr noundef null)
  %7 = call i32 @OPENSSL_init_ssl(i64 noundef 2097152, ptr noundef null)
  call void @ERR_clear_error()
  %8 = call i32 @CRYPTO_free_ex_index(i32 noundef 0, i32 noundef -1)
  %9 = call i32 @SSL_get_ex_data_X509_STORE_CTX_idx()
  store i32 %9, ptr @idx, align 4, !tbaa !11
  %10 = call ptr @SSL_COMP_get_compression_methods()
  store ptr %10, ptr %5, align 8, !tbaa !13
  %11 = load ptr, ptr %5, align 8, !tbaa !13
  %12 = icmp ne ptr %11, null
  br i1 %12, label %13, label %16

13:                                               ; preds = %2
  %14 = load ptr, ptr %5, align 8, !tbaa !13
  %15 = call ptr @ossl_check_SSL_COMP_sk_type(ptr noundef %14)
  call void @OPENSSL_sk_sort(ptr noundef %15)
  br label %16

16:                                               ; preds = %13, %2
  call void @llvm.lifetime.end.p0(i64 8, ptr %5) #7
  ret i32 1
}