; Function Attrs: nounwind uwtable
define dso_local noundef i32 @FuzzerInitialize(ptr noundef readnone captures(none) %0, ptr noundef readnone captures(none) %1) local_unnamed_addr #0 {
  tail call void @FuzzerSetRand() #7
  %3 = tail call i32 @OPENSSL_init_crypto(i64 noundef 258, ptr noundef null) #7
  %4 = tail call i32 @OPENSSL_init_ssl(i64 noundef 2097152, ptr noundef null) #7
  tail call void @ERR_clear_error() #7
  %5 = tail call i32 @CRYPTO_free_ex_index(i32 noundef 0, i32 noundef -1) #7
  %6 = tail call i32 @SSL_get_ex_data_X509_STORE_CTX_idx() #7
  %7 = tail call ptr @SSL_COMP_get_compression_methods() #7
  %.not = icmp eq ptr %7, null
  br i1 %.not, label %9, label %8

8:                                                ; preds = %2
  tail call void @OPENSSL_sk_sort(ptr noundef nonnull %7) #7
  br label %9

9:                                                ; preds = %8, %2
  ret i32 1
}